; Function Attrs: mustprogress uwtable
define void @_ZN32pxrInternal_v0_24__pxrReserved__24HdMapContainerDataSourceC2ERKSt8functionIFSt10shared_ptrINS_16HdDataSourceBaseEERKS4_EERKS2_INS_21HdContainerDataSourceEE(ptr noundef nonnull align 8 dereferenceable(56) initializes((0, 40)) %0, ptr noundef nonnull align 8 dereferenceable(32) %1, ptr noundef nonnull readonly align 8 captures(none) dereferenceable(16) %2) unnamed_addr #0 align 2 personality ptr @__gxx_personality_v0 {
  store ptr getelementptr inbounds nuw inrange(-16, 32) (i8, ptr @_ZTVN32pxrInternal_v0_24__pxrReserved__24HdMapContainerDataSourceE, i64 16), ptr %0, align 8
  %4 = getelementptr inbounds nuw i8, ptr %0, i64 8
  %5 = getelementptr inbounds nuw i8, ptr %0, i64 24
  %6 = getelementptr inbounds nuw i8, ptr %0, i64 32
  %7 = getelementptr inbounds nuw i8, ptr %1, i64 16
  tail call void @llvm.memset.p0.i64(ptr noundef nonnull align 8 dereferenceable(32) %4, i8 0, i64 32, i1 false)
  %8 = load ptr, ptr %7, align 8
  %.not.i.i.not.i = icmp eq ptr %8, null
  br i1 %.not.i.i.not.i, label %_ZNSt8functionIFSt10shared_ptrIN32pxrInternal_v0_24__pxrReserved__16HdDataSourceBaseEERKS3_EEC2ERKS7_.exit, label %9

9:                                                ; preds = %3
  %10 = invoke noundef zeroext i1 %8(ptr noundef nonnull align 8 dereferenceable(32) %4, ptr noundef nonnull align 8 dereferenceable(32) %1, i32 noundef 2)
          to label %11 unwind label %15

11:                                               ; preds = %9
  %12 = getelementptr inbounds nuw i8, ptr %1, i64 24
  %13 = load ptr, ptr %12, align 8
  store ptr %13, ptr %6, align 8
  %14 = load ptr, ptr %7, align 8
  store ptr %14, ptr %5, align 8
  br label %_ZNSt8functionIFSt10shared_ptrIN32pxrInternal_v0_24__pxrReserved__16HdDataSourceBaseEERKS3_EEC2ERKS7_.exit

15:                                               ; preds = %9
  %16 = landingpad { ptr, i32 }
          cleanup
  %17 = load ptr, ptr %5, align 8
  %.not.i.i = icmp eq ptr %17, null
  br i1 %.not.i.i, label %.body, label %18

18:                                               ; preds = %15
  %19 = invoke noundef zeroext i1 %17(ptr noundef nonnull align 8 dereferenceable(32) %4, ptr noundef nonnull align 8 dereferenceable(32) %4, i32 noundef 3)
          to label %.body unwind label %20

20:                                               ; preds = %18
  %21 = landingpad { ptr, i32 }
          catch ptr null
  %22 = extractvalue { ptr, i32 } %21, 0
  tail call void @__clang_call_terminate(ptr %22) #8
  unreachable

_ZNSt8functionIFSt10shared_ptrIN32pxrInternal_v0_24__pxrReserved__16HdDataSourceBaseEERKS3_EEC2ERKS7_.exit: ; preds = %11, %3
  %23 = getelementptr inbounds nuw i8, ptr %0, i64 40
  %24 = load ptr, ptr %2, align 8
  store ptr %24, ptr %23, align 8
  %25 = getelementptr inbounds nuw i8, ptr %0, i64 48
  %26 = getelementptr inbounds nuw i8, ptr %2, i64 8
  %27 = load ptr, ptr %26, align 8
  store ptr %27, ptr %25, align 8
  %.not.i.i.i = icmp eq ptr %27, null
  br i1 %.not.i.i.i, label %_ZNSt10shared_ptrIN32pxrInternal_v0_24__pxrReserved__21HdContainerDataSourceEEC2ERKS2_.exit, label %28

28:                                               ; preds = %_ZNSt8functionIFSt10shared_ptrIN32pxrInternal_v0_24__pxrReserved__16HdDataSourceBaseEERKS3_EEC2ERKS7_.exit
  %29 = getelementptr inbounds nuw i8, ptr %27, i64 8
  %30 = load i8, ptr @__libc_single_threaded, align 1
  %.not.i.i.i.i = icmp eq i8 %30, 0
  br i1 %.not.i.i.i.i, label %34, label %31

31:                                               ; preds = %28
  %32 = load i32, ptr %29, align 4
  %33 = add nsw i32 %32, 1
  store i32 %33, ptr %29, align 4
  br label %_ZNSt10shared_ptrIN32pxrInternal_v0_24__pxrReserved__21HdContainerDataSourceEEC2ERKS2_.exit

34:                                               ; preds = %28
  %35 = atomicrmw volatile add ptr %29, i32 1 acq_rel, align 4
  br label %_ZNSt10shared_ptrIN32pxrInternal_v0_24__pxrReserved__21HdContainerDataSourceEEC2ERKS2_.exit

_ZNSt10shared_ptrIN32pxrInternal_v0_24__pxrReserved__21HdContainerDataSourceEEC2ERKS2_.exit: ; preds = %_ZNSt8functionIFSt10shared_ptrIN32pxrInternal_v0_24__pxrReserved__16HdDataSourceBaseEERKS3_EEC2ERKS7_.exit, %31, %34
  ret void

.body:                                            ; preds = %15, %18
  tail call void @_ZN32pxrInternal_v0_24__pxrReserved__16HdDataSourceBaseD2Ev(ptr noundef nonnull align 8 dereferenceable(8) %0) #9
  resume { ptr, i32 } %16
}